; Function Attrs: mustprogress uwtable
define range(i32 0, 2) i32 @ImfHeaderSetDoubleAttribute(ptr noundef nonnull %0, ptr noundef %1, double noundef %2) local_unnamed_addr #8 personality ptr @__gxx_personality_v0 {
  %4 = alloca double, align 8
  %5 = alloca %"class.Imf_3_4::TypedAttribute.3", align 8
  store double %2, ptr %4, align 8, !tbaa !33
  %6 = invoke ptr @_ZN7Imf_3_46Header4findEPKc(ptr noundef nonnull align 8 dereferenceable(49) %0, ptr noundef %1)
          to label %7 unwind label %14

7:                                                ; preds = %3
  %8 = invoke ptr @_ZN7Imf_3_46Header3endEv(ptr noundef nonnull align 8 dereferenceable(49) %0)
          to label %9 unwind label %16

9:                                                ; preds = %7
  %10 = icmp eq ptr %6, %8
  br i1 %10, label %11, label %34

11:                                               ; preds = %9
  call void @llvm.lifetime.start.p0(i64 16, ptr nonnull %5) #24
  invoke void @_ZN7Imf_3_414TypedAttributeIdEC1ERKd(ptr noundef nonnull align 8 dereferenceable(16) %5, ptr noundef nonnull align 8 dereferenceable(8) %4)
          to label %12 unwind label %20

12:                                               ; preds = %11
  invoke void @_ZN7Imf_3_46Header6insertEPKcRKNS_9AttributeE(ptr noundef nonnull align 8 dereferenceable(49) %0, ptr noundef %1, ptr noundef nonnull align 8 dereferenceable(8) %5)
          to label %13 unwind label %22

13:                                               ; preds = %12
  call void @_ZN7Imf_3_414TypedAttributeIdED1Ev(ptr noundef nonnull align 8 dereferenceable(16) %5) #24
  call void @llvm.lifetime.end.p0(i64 16, ptr nonnull %5) #24
  br label %44

14:                                               ; preds = %3
  %15 = landingpad { ptr, i32 }
          cleanup
          catch ptr @_ZTISt9exception
  br label %.body

16:                                               ; preds = %7
  %17 = landingpad { ptr, i32 }
          cleanup
          catch ptr @_ZTISt9exception
  br label %.body

18:                                               ; preds = %40, %34
  %19 = landingpad { ptr, i32 }
          catch ptr @_ZTISt9exception
  br label %.body

20:                                               ; preds = %11
  %21 = landingpad { ptr, i32 }
          cleanup
          catch ptr @_ZTISt9exception
  br label %24

22:                                               ; preds = %12
  %23 = landingpad { ptr, i32 }
          cleanup
          catch ptr @_ZTISt9exception
  call void @_ZN7Imf_3_414TypedAttributeIdED1Ev(ptr noundef nonnull align 8 dereferenceable(16) %5) #24
  br label %24

24:                                               ; preds = %22, %20
  %.pn17 = phi { ptr, i32 } [ %23, %22 ], [ %21, %20 ]
  call void @llvm.lifetime.end.p0(i64 16, ptr nonnull %5) #24
  br label %.body

.body:                                            ; preds = %18, %41, %14, %16, %24
  %.pn17.pn = phi { ptr, i32 } [ %.pn17, %24 ], [ %17, %16 ], [ %15, %14 ], [ %19, %18 ], [ %42, %41 ]
  %.1 = extractvalue { ptr, i32 } %.pn17.pn, 1
  %25 = call i32 @llvm.eh.typeid.for.p0(ptr nonnull @_ZTISt9exception) #24
  %26 = icmp eq i32 %.1, %25
  br i1 %26, label %27, label %45

27:                                               ; preds = %.body
  %.114 = extractvalue { ptr, i32 } %.pn17.pn, 0
  %28 = call ptr @__cxa_begin_catch(ptr %.114) #24
  %29 = load ptr, ptr %28, align 8, !tbaa !22
  %30 = getelementptr inbounds nuw i8, ptr %29, i64 16
  %31 = load ptr, ptr %30, align 8
  %32 = call noundef ptr %31(ptr noundef nonnull align 8 dereferenceable(8) %28) #24
  %33 = call ptr @strncpy(ptr noundef nonnull dereferenceable(1) @_ZN12_GLOBAL__N_112errorMessageE, ptr noundef nonnull dereferenceable(1) %32, i64 noundef 1023) #24
  store i8 0, ptr getelementptr inbounds nuw (i8, ptr @_ZN12_GLOBAL__N_112errorMessageE, i64 1023), align 1, !tbaa !15
  call void @__cxa_end_catch()
  br label %44

34:                                               ; preds = %9
  %35 = invoke noundef nonnull align 8 dereferenceable(8) ptr @_ZN7Imf_3_46HeaderixEPKc(ptr noundef nonnull align 8 dereferenceable(49) %0, ptr noundef %1)
          to label %.noexc unwind label %18

.noexc:                                           ; preds = %34
  %36 = tail call ptr @__dynamic_cast(ptr nonnull %35, ptr nonnull @_ZTIN7Imf_3_49AttributeE, ptr nonnull @_ZTIN7Imf_3_414TypedAttributeIdEE, i64 0) #24
  %37 = icmp eq ptr %36, null
  br i1 %37, label %38, label %_ZN7Imf_3_46Header14typedAttributeINS_14TypedAttributeIdEEEERT_PKc.exit

38:                                               ; preds = %.noexc
  %39 = tail call ptr @__cxa_allocate_exception(i64 72) #24
  invoke void @_ZN7Iex_3_47TypeExcC1EPKc(ptr noundef nonnull align 8 dereferenceable(72) %39, ptr noundef nonnull @.str)
          to label %40 unwind label %41

40:                                               ; preds = %38
  invoke void @__cxa_throw(ptr nonnull %39, ptr nonnull @_ZTIN7Iex_3_47TypeExcE, ptr nonnull @_ZN7Iex_3_47TypeExcD1Ev) #26
          to label %.noexc20 unwind label %18

.noexc20:                                         ; preds = %40
  unreachable

41:                                               ; preds = %38
  %42 = landingpad { ptr, i32 }
          cleanup
          catch ptr @_ZTISt9exception
  tail call void @__cxa_free_exception(ptr nonnull %39) #24
  br label %.body

_ZN7Imf_3_46Header14typedAttributeINS_14TypedAttributeIdEEEERT_PKc.exit: ; preds = %.noexc
  %43 = getelementptr inbounds nuw i8, ptr %36, i64 8
  store double %2, ptr %43, align 8, !tbaa !33
  br label %44

44:                                               ; preds = %13, %_ZN7Imf_3_46Header14typedAttributeINS_14TypedAttributeIdEEEERT_PKc.exit, %27
  %.0 = phi i32 [ 0, %27 ], [ 1, %_ZN7Imf_3_46Header14typedAttributeINS_14TypedAttributeIdEEEERT_PKc.exit ], [ 1, %13 ]
  ret i32 %.0

45:                                               ; preds = %.body
  resume { ptr, i32 } %.pn17.pn
}